; Function Attrs: mustprogress nounwind uwtable
define hidden void @_ZN8ZLiveMap6resizeEj(ptr noundef nonnull align 8 dereferenceable(64) %0, i32 noundef %1) local_unnamed_addr #1 align 2 {
  %3 = tail call i32 @llvm.umax.i32(i32 %1, i32 64)
  %4 = zext i32 %3 to i64
  %5 = shl nuw nsw i64 %4, 1
  %6 = getelementptr inbounds i8, ptr %0, i64 40
  %7 = load i64, ptr %6, align 8
  %.not = icmp eq i64 %7, %5
  br i1 %.not, label %14, label %8

8:                                                ; preds = %2
  %9 = getelementptr inbounds i8, ptr %0, i64 32
  tail call void @_ZN14GrowableBitMapI11CHeapBitMapE12reinitializeEmb(ptr noundef nonnull align 8 dereferenceable(16) %9, i64 noundef %5, i1 noundef zeroext false) #7
  %10 = load i64, ptr %6, align 8
  %11 = lshr i64 %10, 6
  %12 = tail call range(i64 0, 65) i64 @llvm.cttz.i64(i64 %11, i1 true)
  %13 = getelementptr inbounds i8, ptr %0, i64 56
  store i64 %12, ptr %13, align 8
  br label %14

14:                                               ; preds = %8, %2
  ret void
}